target datalayout = "e-m:e-p270:32:32-p271:32:32-p272:64:64-i64:64-i128:128-f80:128-n8:16:32:64-S128"
target triple = "x86_64-unknown-linux-gnu"

%"class.sat::clause_allocator" = type { %class.sat_allocator, %class.id_gen }
%class.sat_allocator = type { ptr, i64, %class.ptr_vector, ptr, [65 x %class.ptr_vector.1] }
%class.ptr_vector = type { %class.vector.0 }
%class.vector.0 = type { ptr }
%class.ptr_vector.1 = type { %class.vector.2 }
%class.vector.2 = type { ptr }
%class.id_gen = type { i32, %class.svector.3 }
%class.svector.3 = type { %class.vector.4 }
%class.vector.4 = type { ptr }

@_ZN3sat6clauseC1EjjPKNS_7literalEb = hidden unnamed_addr alias void (ptr, i32, i32, ptr, i1), ptr @_ZN3sat6clauseC2EjjPKNS_7literalEb

; Function Attrs: mustprogress nounwind uwtable
define linkonce_odr hidden noundef nonnull align 4 dereferenceable(4) ptr @_ZN6vectorIjLb0EjEixEj(ptr noundef nonnull align 8 dereferenceable(8) %this, i32 noundef %idx) #4 comdat align 2 {
entry:
  %this.addr = alloca ptr, align 8
  %idx.addr = alloca i32, align 4
  store ptr %this, ptr %this.addr, align 8
  store i32 %idx, ptr %idx.addr, align 4
  %this1 = load ptr, ptr %this.addr, align 8
  %m_data = getelementptr inbounds %class.vector.4, ptr %this1, i32 0, i32 0
  %0 = load ptr, ptr %m_data, align 8
  %1 = load i32, ptr %idx.addr, align 4
  %idxprom = zext i32 %1 to i64
  %arrayidx = getelementptr inbounds i32, ptr %0, i64 %idxprom
  ret ptr %arrayidx
}

; Function Attrs: mustprogress nounwind uwtable
define linkonce_odr hidden noundef i32 @_ZNK6vectorIjLb0EjE4sizeEv(ptr noundef nonnull align 8 dereferenceable(8) %this) #4 comdat align 2 {
entry:
  %retval = alloca i32, align 4
  %this.addr = alloca ptr, align 8
  store ptr %this, ptr %this.addr, align 8
  %this1 = load ptr, ptr %this.addr, align 8
  %m_data = getelementptr inbounds %class.vector.4, ptr %this1, i32 0, i32 0
  %0 = load ptr, ptr %m_data, align 8
  %cmp = icmp eq ptr %0, null
  br i1 %cmp, label %if.then, label %if.end

if.then:                                          ; preds = %entry
  store i32 0, ptr %retval, align 4
  br label %return

if.end:                                           ; preds = %entry
  %m_data2 = getelementptr inbounds %class.vector.4, ptr %this1, i32 0, i32 0
  %1 = load ptr, ptr %m_data2, align 8
  %arrayidx = getelementptr inbounds i32, ptr %1, i64 -1
  %2 = load i32, ptr %arrayidx, align 4
  store i32 %2, ptr %retval, align 4
  br label %return

return:                                           ; preds = %if.end, %if.then
  %3 = load i32, ptr %retval, align 4
  ret i32 %3
}

; Function Attrs: mustprogress nounwind uwtable
define linkonce_odr hidden void @_ZN6vectorIjLb0EjE8pop_backEv(ptr noundef nonnull align 8 dereferenceable(8) %this) #4 comdat align 2 {
entry:
  %this.addr = alloca ptr, align 8
  store ptr %this, ptr %this.addr, align 8
  %this1 = load ptr, ptr %this.addr, align 8
  %m_data = getelementptr inbounds %class.vector.4, ptr %this1, i32 0, i32 0
  %0 = load ptr, ptr %m_data, align 8
  %arrayidx = getelementptr inbounds i32, ptr %0, i64 -1
  %1 = load i32, ptr %arrayidx, align 4
  %dec = add i32 %1, -1
  store i32 %dec, ptr %arrayidx, align 4
  ret void
}

; Function Attrs: mustprogress uwtable
define linkonce_odr hidden noundef nonnull align 4 dereferenceable(4) ptr @_ZN6vectorIjLb0EjE4backEv(ptr noundef nonnull align 8 dereferenceable(8) %this) #5 comdat align 2 {
entry:
  %this.addr = alloca ptr, align 8
  store ptr %this, ptr %this.addr, align 8
  %this1 = load ptr, ptr %this.addr, align 8
  %call = call noundef i32 @_ZNK6vectorIjLb0EjE4sizeEv(ptr noundef nonnull align 8 dereferenceable(8) %this1)
  %sub = sub i32 %call, 1
  %call2 = call noundef nonnull align 4 dereferenceable(4) ptr @_ZN6vectorIjLb0EjEixEj(ptr noundef nonnull align 8 dereferenceable(8) %this1, i32 noundef %sub)
  ret ptr %call2
}

; Function Attrs: mustprogress nounwind uwtable
define linkonce_odr hidden noundef zeroext i1 @_ZNK6vectorIjLb0EjE5emptyEv(ptr noundef nonnull align 8 dereferenceable(8) %this) #4 comdat align 2 {
entry:
  %this.addr = alloca ptr, align 8
  store ptr %this, ptr %this.addr, align 8
  %this1 = load ptr, ptr %this.addr, align 8
  %m_data = getelementptr inbounds %class.vector.4, ptr %this1, i32 0, i32 0
  %0 = load ptr, ptr %m_data, align 8
  %cmp = icmp eq ptr %0, null
  br i1 %cmp, label %lor.end, label %lor.rhs

lor.rhs:                                          ; preds = %entry
  %m_data2 = getelementptr inbounds %class.vector.4, ptr %this1, i32 0, i32 0
  %1 = load ptr, ptr %m_data2, align 8
  %arrayidx = getelementptr inbounds i32, ptr %1, i64 -1
  %2 = load i32, ptr %arrayidx, align 4
  %cmp3 = icmp eq i32 %2, 0
  br label %lor.end

lor.end:                                          ; preds = %lor.rhs, %entry
  %3 = phi i1 [ true, %entry ], [ %cmp3, %lor.rhs ]
  ret i1 %3
}

; Function Attrs: mustprogress uwtable
define linkonce_odr hidden noundef i32 @_ZN6id_gen2mkEv(ptr noundef nonnull align 8 dereferenceable(16) %this) #5 comdat align 2 {
entry:
  %this.addr = alloca ptr, align 8
  %r = alloca i32, align 4
  store ptr %this, ptr %this.addr, align 8
  %this1 = load ptr, ptr %this.addr, align 8
  %m_free_ids = getelementptr inbounds %class.id_gen, ptr %this1, i32 0, i32 1
  %call = call noundef zeroext i1 @_ZNK6vectorIjLb0EjE5emptyEv(ptr noundef nonnull align 8 dereferenceable(8) %m_free_ids)
  br i1 %call, label %if.then, label %if.else

if.then:                                          ; preds = %entry
  %m_next_id = getelementptr inbounds %class.id_gen, ptr %this1, i32 0, i32 0
  %0 = load i32, ptr %m_next_id, align 8
  store i32 %0, ptr %r, align 4
  %m_next_id2 = getelementptr inbounds %class.id_gen, ptr %this1, i32 0, i32 0
  %1 = load i32, ptr %m_next_id2, align 8
  %inc = add i32 %1, 1
  store i32 %inc, ptr %m_next_id2, align 8
  br label %if.end

if.else:                                          ; preds = %entry
  %m_free_ids3 = getelementptr inbounds %class.id_gen, ptr %this1, i32 0, i32 1
  %call4 = call noundef nonnull align 4 dereferenceable(4) ptr @_ZN6vectorIjLb0EjE4backEv(ptr noundef nonnull align 8 dereferenceable(8) %m_free_ids3)
  %2 = load i32, ptr %call4, align 4
  store i32 %2, ptr %r, align 4
  %m_free_ids5 = getelementptr inbounds %class.id_gen, ptr %this1, i32 0, i32 1
  call void @_ZN6vectorIjLb0EjE8pop_backEv(ptr noundef nonnull align 8 dereferenceable(8) %m_free_ids5)
  br label %if.end

if.end:                                           ; preds = %if.else, %if.then
  %3 = load i32, ptr %r, align 4
  ret i32 %3
}

; Function Attrs: mustprogress nounwind uwtable
define linkonce_odr hidden noundef i64 @_ZN3sat6clause12get_obj_sizeEj(i32 noundef %num_lits) #4 comdat align 2 {
entry:
  %num_lits.addr = alloca i32, align 4
  store i32 %num_lits, ptr %num_lits.addr, align 4
  %0 = load i32, ptr %num_lits.addr, align 4
  %conv = zext i32 %0 to i64
  %mul = mul i64 %conv, 4
  %add = add i64 20, %mul
  ret i64 %add
}

; Function Attrs: mustprogress uwtable
define hidden noundef ptr @_ZN3sat16clause_allocator9mk_clauseEjPKNS_7literalEb(ptr noundef nonnull align 8 dereferenceable(568) %this, i32 noundef %num_lits, ptr noundef %lits, i1 noundef zeroext %learned) #5 align 2 {
entry:
  %this.addr = alloca ptr, align 8
  %num_lits.addr = alloca i32, align 4
  %lits.addr = alloca ptr, align 8
  %learned.addr = alloca i8, align 1
  %size = alloca i64, align 8
  %mem = alloca ptr, align 8
  %cls = alloca ptr, align 8
  store ptr %this, ptr %this.addr, align 8
  store i32 %num_lits, ptr %num_lits.addr, align 4
  store ptr %lits, ptr %lits.addr, align 8
  %frombool = zext i1 %learned to i8
  store i8 %frombool, ptr %learned.addr, align 1
  %this1 = load ptr, ptr %this.addr, align 8
  %0 = load i32, ptr %num_lits.addr, align 4
  %call = call noundef i64 @_ZN3sat6clause12get_obj_sizeEj(i32 noundef %0)
  store i64 %call, ptr %size, align 8
  %m_allocator = getelementptr inbounds %"class.sat::clause_allocator", ptr %this1, i32 0, i32 0
  %1 = load i64, ptr %size, align 8
  %call2 = call noundef ptr @_ZN13sat_allocator8allocateEm(ptr noundef nonnull align 8 dereferenceable(552) %m_allocator, i64 noundef %1)
  store ptr %call2, ptr %mem, align 8
  %2 = load ptr, ptr %mem, align 8
  %m_id_gen = getelementptr inbounds %"class.sat::clause_allocator", ptr %this1, i32 0, i32 1
  %call3 = call noundef i32 @_ZN6id_gen2mkEv(ptr noundef nonnull align 8 dereferenceable(16) %m_id_gen)
  %3 = load i32, ptr %num_lits.addr, align 4
  %4 = load ptr, ptr %lits.addr, align 8
  %5 = load i8, ptr %learned.addr, align 1
  %tobool = trunc i8 %5 to i1
  call void @_ZN3sat6clauseC1EjjPKNS_7literalEb(ptr noundef nonnull align 4 dereferenceable(20) %2, i32 noundef %call3, i32 noundef %3, ptr noundef %4, i1 noundef zeroext %tobool)
  store ptr %2, ptr %cls, align 8
  %6 = load ptr, ptr %cls, align 8
  ret ptr %6
}