; Function Attrs: mustprogress uwtable
define hidden noundef ptr @_ZN3sat16clause_allocator9mk_clauseEjPKNS_7literalEb(ptr noundef nonnull align 8 dereferenceable(568) %this, i32 noundef %num_lits, ptr nocapture noundef readonly %lits, i1 noundef zeroext %learned) local_unnamed_addr #8 align 2 {
entry:
  %conv.i = zext i32 %num_lits to i64
  %mul.i = shl nuw nsw i64 %conv.i, 2
  %add.i = add nuw nsw i64 %mul.i, 20
  %call2 = tail call noundef ptr @_ZN13sat_allocator8allocateEm(ptr noundef nonnull align 8 dereferenceable(552) %this, i64 noundef %add.i)
  %m_id_gen = getelementptr inbounds i8, ptr %this, i64 552
  %m_free_ids.i = getelementptr inbounds i8, ptr %this, i64 560
  %0 = load ptr, ptr %m_free_ids.i, align 8
  %cmp.i.i = icmp eq ptr %0, null
  br i1 %cmp.i.i, label %if.then.i, label %_ZNK6vectorIjLb0EjE5emptyEv.exit.i

_ZNK6vectorIjLb0EjE5emptyEv.exit.i:               ; preds = %entry
  %arrayidx.i.i = getelementptr inbounds i8, ptr %0, i64 -4
  %1 = load i32, ptr %arrayidx.i.i, align 4
  %cmp3.i.i = icmp eq i32 %1, 0
  br i1 %cmp3.i.i, label %if.then.i, label %_ZN6vectorIjLb0EjE4backEv.exit.i

if.then.i:                                        ; preds = %_ZNK6vectorIjLb0EjE5emptyEv.exit.i, %entry
  %2 = load i32, ptr %m_id_gen, align 8
  %inc.i = add i32 %2, 1
  store i32 %inc.i, ptr %m_id_gen, align 8
  br label %_ZN6id_gen2mkEv.exit

_ZN6vectorIjLb0EjE4backEv.exit.i:                 ; preds = %_ZNK6vectorIjLb0EjE5emptyEv.exit.i
  %3 = add i32 %1, -1
  %4 = zext i32 %3 to i64
  %arrayidx.i1.i.i = getelementptr inbounds i32, ptr %0, i64 %4
  %5 = load i32, ptr %arrayidx.i1.i.i, align 4
  store i32 %3, ptr %arrayidx.i.i, align 4
  br label %_ZN6id_gen2mkEv.exit

_ZN6id_gen2mkEv.exit:                             ; preds = %if.then.i, %_ZN6vectorIjLb0EjE4backEv.exit.i
  %r.0.i = phi i32 [ %2, %if.then.i ], [ %5, %_ZN6vectorIjLb0EjE4backEv.exit.i ]
  store i32 %r.0.i, ptr %call2, align 4
  %m_size.i = getelementptr inbounds i8, ptr %call2, i64 4
  store i32 %num_lits, ptr %m_size.i, align 4
  %m_capacity.i = getelementptr inbounds i8, ptr %call2, i64 8
  store i32 %num_lits, ptr %m_capacity.i, align 4
  %m_approx.i = getelementptr inbounds i8, ptr %call2, i64 12
  store i32 0, ptr %m_approx.i, align 4
  %m_removed.i = getelementptr inbounds i8, ptr %call2, i64 16
  %bf.load.i = load i32, ptr %m_removed.i, align 4
  %bf.shl.i = select i1 %learned, i32 4, i32 0
  %bf.clear3.i = and i32 %bf.load.i, -1073741823
  %bf.set4.i = or disjoint i32 %bf.clear3.i, %bf.shl.i
  %bf.set22.i = or disjoint i32 %bf.set4.i, 1073725440
  store i32 %bf.set22.i, ptr %m_removed.i, align 4
  %m_lits.i = getelementptr inbounds i8, ptr %call2, i64 20
  tail call void @llvm.memcpy.p0.p0.i64(ptr nonnull align 4 %m_lits.i, ptr align 4 %lits, i64 %mul.i, i1 false)
  %bf.set.i.i = or i32 %bf.set4.i, 1073725441
  store i32 %bf.set.i.i, ptr %m_removed.i, align 4
  %cmp4.not.i.i.i.i = icmp eq i32 %num_lits, 0
  br i1 %cmp4.not.i.i.i.i, label %_ZN3sat6clauseC2EjjPKNS_7literalEb.exit, label %for.body.i.i.i.i

for.body.i.i.i.i:                                 ; preds = %_ZN6id_gen2mkEv.exit, %for.body.i.i.i.i
  %indvars.iv.i.i.i.i = phi i64 [ %indvars.iv.next.i.i.i.i, %for.body.i.i.i.i ], [ 0, %_ZN6id_gen2mkEv.exit ]
  %retval.sroa.0.05.i.i.i.i = phi i32 [ %or.i.i.i.i.i, %for.body.i.i.i.i ], [ 0, %_ZN6id_gen2mkEv.exit ]
  %arrayidx.i.i.i.i = getelementptr inbounds %"class.sat::literal", ptr %m_lits.i, i64 %indvars.iv.i.i.i.i
  %6 = load i32, ptr %arrayidx.i.i.i.i, align 4
  %shr.i.i.i.i.i = lshr i32 %6, 1
  %and.i.i.i.i.i.i.i = and i32 %shr.i.i.i.i.i, 31
  %shl.i.i.i.i.i.i.i = shl nuw i32 1, %and.i.i.i.i.i.i.i
  %or.i.i.i.i.i = or i32 %shl.i.i.i.i.i.i.i, %retval.sroa.0.05.i.i.i.i
  %indvars.iv.next.i.i.i.i = add nuw nsw i64 %indvars.iv.i.i.i.i, 1
  %exitcond.not.i.i.i.i = icmp eq i64 %indvars.iv.next.i.i.i.i, %conv.i
  br i1 %exitcond.not.i.i.i.i, label %_ZN3sat6clauseC2EjjPKNS_7literalEb.exit, label %for.body.i.i.i.i, !llvm.loop !4

_ZN3sat6clauseC2EjjPKNS_7literalEb.exit:          ; preds = %for.body.i.i.i.i, %_ZN6id_gen2mkEv.exit
  %retval.sroa.0.0.lcssa.i.i.i.i = phi i32 [ 0, %_ZN6id_gen2mkEv.exit ], [ %or.i.i.i.i.i, %for.body.i.i.i.i ]
  store i32 %retval.sroa.0.0.lcssa.i.i.i.i, ptr %m_approx.i, align 4
  ret ptr %call2
}